target datalayout = "e-m:e-p270:32:32-p271:32:32-p272:64:64-i64:64-i128:128-f80:128-n8:16:32:64-S128"
target triple = "x86_64-pc-linux-gnu"

; Function Attrs: mustprogress uwtable
define noundef ptr @_Z24coco_string_create_lowerPKwii(ptr noundef %0, i32 noundef %1, i32 noundef %2) #1 {
  %4 = alloca ptr, align 8
  %5 = alloca ptr, align 8
  %6 = alloca i32, align 4
  %7 = alloca i32, align 4
  %8 = alloca ptr, align 8
  %9 = alloca i32, align 4
  %10 = alloca i32, align 4
  store ptr %0, ptr %5, align 8
  store i32 %1, ptr %6, align 4
  store i32 %2, ptr %7, align 4
  %11 = load ptr, ptr %5, align 8
  %12 = icmp ne ptr %11, null
  br i1 %12, label %14, label %13

13:                                               ; preds = %3
  store ptr null, ptr %4, align 8
  br label %63

14:                                               ; preds = %3
  %15 = load i32, ptr %7, align 4
  %16 = add nsw i32 %15, 1
  %17 = sext i32 %16 to i64
  %18 = call { i64, i1 } @llvm.umul.with.overflow.i64(i64 %17, i64 4)
  %19 = extractvalue { i64, i1 } %18, 1
  %20 = extractvalue { i64, i1 } %18, 0
  %21 = select i1 %19, i64 -1, i64 %20
  %22 = call noalias noundef nonnull ptr @_Znam(i64 noundef %21) #14
  store ptr %22, ptr %8, align 8
  store i32 0, ptr %9, align 4
  br label %23

23:                                               ; preds = %54, %14
  %24 = load i32, ptr %9, align 4
  %25 = load i32, ptr %7, align 4
  %26 = icmp sle i32 %24, %25
  br i1 %26, label %27, label %57

27:                                               ; preds = %23
  %28 = load ptr, ptr %5, align 8
  %29 = load i32, ptr %6, align 4
  %30 = load i32, ptr %9, align 4
  %31 = add nsw i32 %29, %30
  %32 = sext i32 %31 to i64
  %33 = getelementptr inbounds i32, ptr %28, i64 %32
  %34 = load i32, ptr %33, align 4
  store i32 %34, ptr %10, align 4
  %35 = load i32, ptr %10, align 4
  %36 = icmp sle i32 65, %35
  br i1 %36, label %37, label %47

37:                                               ; preds = %27
  %38 = load i32, ptr %10, align 4
  %39 = icmp sle i32 %38, 90
  br i1 %39, label %40, label %47

40:                                               ; preds = %37
  %41 = load i32, ptr %10, align 4
  %42 = sub nsw i32 %41, -32
  %43 = load ptr, ptr %8, align 8
  %44 = load i32, ptr %9, align 4
  %45 = sext i32 %44 to i64
  %46 = getelementptr inbounds i32, ptr %43, i64 %45
  store i32 %42, ptr %46, align 4
  br label %53

47:                                               ; preds = %37, %27
  %48 = load i32, ptr %10, align 4
  %49 = load ptr, ptr %8, align 8
  %50 = load i32, ptr %9, align 4
  %51 = sext i32 %50 to i64
  %52 = getelementptr inbounds i32, ptr %49, i64 %51
  store i32 %48, ptr %52, align 4
  br label %53

53:                                               ; preds = %47, %40
  br label %54

54:                                               ; preds = %53
  %55 = load i32, ptr %9, align 4
  %56 = add nsw i32 %55, 1
  store i32 %56, ptr %9, align 4
  br label %23, !llvm.loop !10

57:                                               ; preds = %23
  %58 = load ptr, ptr %8, align 8
  %59 = load i32, ptr %7, align 4
  %60 = sext i32 %59 to i64
  %61 = getelementptr inbounds i32, ptr %58, i64 %60
  store i32 0, ptr %61, align 4
  %62 = load ptr, ptr %8, align 8
  store ptr %62, ptr %4, align 8
  br label %63

63:                                               ; preds = %57, %13
  %64 = load ptr, ptr %4, align 8
  ret ptr %64
}

; Function Attrs: mustprogress uwtable
define noundef ptr @_Z24coco_string_create_lowerPKw(ptr noundef %0) #1 {
  %2 = alloca ptr, align 8
  %3 = alloca ptr, align 8
  %4 = alloca i32, align 4
  store ptr %0, ptr %3, align 8
  %5 = load ptr, ptr %3, align 8
  %6 = icmp ne ptr %5, null
  br i1 %6, label %8, label %7

7:                                                ; preds = %1
  store ptr null, ptr %2, align 8
  br label %15

8:                                                ; preds = %1
  %9 = load ptr, ptr %3, align 8
  %10 = call i64 @wcslen(ptr noundef %9) #16
  %11 = trunc i64 %10 to i32
  store i32 %11, ptr %4, align 4
  %12 = load ptr, ptr %3, align 8
  %13 = load i32, ptr %4, align 4
  %14 = call noundef ptr @_Z24coco_string_create_lowerPKwii(ptr noundef %12, i32 noundef 0, i32 noundef %13)
  store ptr %14, ptr %2, align 8
  br label %15

15:                                               ; preds = %8, %7
  %16 = load ptr, ptr %2, align 8
  ret ptr %16
}