; Function Attrs: mustprogress uwtable
define noalias noundef ptr @_Z24coco_string_create_lowerPKw(ptr noundef readonly %0) local_unnamed_addr #2 {
  %.not = icmp eq ptr %0, null
  br i1 %.not, label %17, label %2

2:                                                ; preds = %1
  %3 = tail call i64 @wcslen(ptr noundef nonnull %0) #24
  %4 = trunc i64 %3 to i32
  %5 = add i64 %3, 1
  %6 = and i64 %5, 4294967295
  %7 = icmp slt i32 %4, -1
  %8 = shl nuw nsw i64 %6, 2
  %9 = select i1 %7, i64 -1, i64 %8
  %10 = tail call noalias noundef nonnull ptr @_Znam(i64 noundef %9) #21
  %.not2425.i = icmp slt i32 %4, 0
  br i1 %.not2425.i, label %_Z24coco_string_create_lowerPKwii.exit, label %.lr.ph.i

.lr.ph.i:                                         ; preds = %2, %.lr.ph.i
  %indvars.iv.i = phi i64 [ %indvars.iv.next.i, %.lr.ph.i ], [ 0, %2 ]
  %gep.i = getelementptr i32, ptr %0, i64 %indvars.iv.i
  %11 = load i32, ptr %gep.i, align 4
  %12 = add i32 %11, -65
  %or.cond.i = icmp ult i32 %12, 26
  %13 = or disjoint i32 %11, 32
  %spec.select.i = select i1 %or.cond.i, i32 %13, i32 %11
  %14 = getelementptr inbounds i32, ptr %10, i64 %indvars.iv.i
  store i32 %spec.select.i, ptr %14, align 4
  %indvars.iv.next.i = add nuw nsw i64 %indvars.iv.i, 1
  %exitcond.not.i = icmp eq i64 %indvars.iv.next.i, %6
  br i1 %exitcond.not.i, label %_Z24coco_string_create_lowerPKwii.exit, label %.lr.ph.i, !llvm.loop !10

_Z24coco_string_create_lowerPKwii.exit:           ; preds = %.lr.ph.i, %2
  %sext = shl i64 %3, 32
  %15 = ashr exact i64 %sext, 32
  %16 = getelementptr inbounds i32, ptr %10, i64 %15
  store i32 0, ptr %16, align 4
  br label %17

17:                                               ; preds = %1, %_Z24coco_string_create_lowerPKwii.exit
  %.0 = phi ptr [ %10, %_Z24coco_string_create_lowerPKwii.exit ], [ null, %1 ]
  ret ptr %.0
}